target datalayout = "e-m:e-p270:32:32-p271:32:32-p272:64:64-i64:64-i128:128-f80:128-n8:16:32:64-S128"
target triple = "x86_64-pc-linux-gnu"

%struct.gmx_ana_index_t = type { i32, ptr, i32 }

; Function Attrs: mustprogress nounwind uwtable
define void @_Z19gmx_ana_index_mergeP15gmx_ana_index_tS0_S0_(ptr noundef %0, ptr noundef %1, ptr noundef %2) #1 {
  %4 = alloca ptr, align 8
  %5 = alloca ptr, align 8
  %6 = alloca ptr, align 8
  %7 = alloca i32, align 4
  %8 = alloca i32, align 4
  %9 = alloca i32, align 4
  store ptr %0, ptr %4, align 8, !tbaa !232
  store ptr %1, ptr %5, align 8, !tbaa !232
  store ptr %2, ptr %6, align 8, !tbaa !232
  call void @llvm.lifetime.start.p0(i64 4, ptr %7) #19
  call void @llvm.lifetime.start.p0(i64 4, ptr %8) #19
  call void @llvm.lifetime.start.p0(i64 4, ptr %9) #19
  %10 = load ptr, ptr %5, align 8, !tbaa !232
  %11 = getelementptr inbounds nuw %struct.gmx_ana_index_t, ptr %10, i32 0, i32 0
  %12 = load i32, ptr %11, align 8, !tbaa !234
  %13 = sub nsw i32 %12, 1
  store i32 %13, ptr %7, align 4, !tbaa !114
  %14 = load ptr, ptr %6, align 8, !tbaa !232
  %15 = getelementptr inbounds nuw %struct.gmx_ana_index_t, ptr %14, i32 0, i32 0
  %16 = load i32, ptr %15, align 8, !tbaa !234
  %17 = sub nsw i32 %16, 1
  store i32 %17, ptr %8, align 4, !tbaa !114
  %18 = load ptr, ptr %5, align 8, !tbaa !232
  %19 = getelementptr inbounds nuw %struct.gmx_ana_index_t, ptr %18, i32 0, i32 0
  %20 = load i32, ptr %19, align 8, !tbaa !234
  %21 = load ptr, ptr %6, align 8, !tbaa !232
  %22 = getelementptr inbounds nuw %struct.gmx_ana_index_t, ptr %21, i32 0, i32 0
  %23 = load i32, ptr %22, align 8, !tbaa !234
  %24 = add nsw i32 %20, %23
  %25 = load ptr, ptr %4, align 8, !tbaa !232
  %26 = getelementptr inbounds nuw %struct.gmx_ana_index_t, ptr %25, i32 0, i32 0
  store i32 %24, ptr %26, align 8, !tbaa !234
  %27 = load ptr, ptr %4, align 8, !tbaa !232
  %28 = getelementptr inbounds nuw %struct.gmx_ana_index_t, ptr %27, i32 0, i32 0
  %29 = load i32, ptr %28, align 8, !tbaa !234
  %30 = sub nsw i32 %29, 1
  store i32 %30, ptr %9, align 4, !tbaa !114
  br label %31

31:                                               ; preds = %87, %3
  %32 = load i32, ptr %9, align 4, !tbaa !114
  %33 = icmp sge i32 %32, 0
  br i1 %33, label %34, label %90

34:                                               ; preds = %31
  %35 = load i32, ptr %7, align 4, !tbaa !114
  %36 = icmp slt i32 %35, 0
  br i1 %36, label %56, label %37

37:                                               ; preds = %34
  %38 = load i32, ptr %8, align 4, !tbaa !114
  %39 = icmp sge i32 %38, 0
  br i1 %39, label %40, label %71

40:                                               ; preds = %37
  %41 = load ptr, ptr %5, align 8, !tbaa !232
  %42 = getelementptr inbounds nuw %struct.gmx_ana_index_t, ptr %41, i32 0, i32 1
  %43 = load ptr, ptr %42, align 8, !tbaa !236
  %44 = load i32, ptr %7, align 4, !tbaa !114
  %45 = sext i32 %44 to i64
  %46 = getelementptr inbounds i32, ptr %43, i64 %45
  %47 = load i32, ptr %46, align 4, !tbaa !114
  %48 = load ptr, ptr %6, align 8, !tbaa !232
  %49 = getelementptr inbounds nuw %struct.gmx_ana_index_t, ptr %48, i32 0, i32 1
  %50 = load ptr, ptr %49, align 8, !tbaa !236
  %51 = load i32, ptr %8, align 4, !tbaa !114
  %52 = sext i32 %51 to i64
  %53 = getelementptr inbounds i32, ptr %50, i64 %52
  %54 = load i32, ptr %53, align 4, !tbaa !114
  %55 = icmp slt i32 %47, %54
  br i1 %55, label %56, label %71

56:                                               ; preds = %40, %34
  %57 = load ptr, ptr %6, align 8, !tbaa !232
  %58 = getelementptr inbounds nuw %struct.gmx_ana_index_t, ptr %57, i32 0, i32 1
  %59 = load ptr, ptr %58, align 8, !tbaa !236
  %60 = load i32, ptr %8, align 4, !tbaa !114
  %61 = add nsw i32 %60, -1
  store i32 %61, ptr %8, align 4, !tbaa !114
  %62 = sext i32 %60 to i64
  %63 = getelementptr inbounds i32, ptr %59, i64 %62
  %64 = load i32, ptr %63, align 4, !tbaa !114
  %65 = load ptr, ptr %4, align 8, !tbaa !232
  %66 = getelementptr inbounds nuw %struct.gmx_ana_index_t, ptr %65, i32 0, i32 1
  %67 = load ptr, ptr %66, align 8, !tbaa !236
  %68 = load i32, ptr %9, align 4, !tbaa !114
  %69 = sext i32 %68 to i64
  %70 = getelementptr inbounds i32, ptr %67, i64 %69
  store i32 %64, ptr %70, align 4, !tbaa !114
  br label %86

71:                                               ; preds = %40, %37
  %72 = load ptr, ptr %5, align 8, !tbaa !232
  %73 = getelementptr inbounds nuw %struct.gmx_ana_index_t, ptr %72, i32 0, i32 1
  %74 = load ptr, ptr %73, align 8, !tbaa !236
  %75 = load i32, ptr %7, align 4, !tbaa !114
  %76 = add nsw i32 %75, -1
  store i32 %76, ptr %7, align 4, !tbaa !114
  %77 = sext i32 %75 to i64
  %78 = getelementptr inbounds i32, ptr %74, i64 %77
  %79 = load i32, ptr %78, align 4, !tbaa !114
  %80 = load ptr, ptr %4, align 8, !tbaa !232
  %81 = getelementptr inbounds nuw %struct.gmx_ana_index_t, ptr %80, i32 0, i32 1
  %82 = load ptr, ptr %81, align 8, !tbaa !236
  %83 = load i32, ptr %9, align 4, !tbaa !114
  %84 = sext i32 %83 to i64
  %85 = getelementptr inbounds i32, ptr %82, i64 %84
  store i32 %79, ptr %85, align 4, !tbaa !114
  br label %86

86:                                               ; preds = %71, %56
  br label %87

87:                                               ; preds = %86
  %88 = load i32, ptr %9, align 4, !tbaa !114
  %89 = add nsw i32 %88, -1
  store i32 %89, ptr %9, align 4, !tbaa !114
  br label %31, !llvm.loop !344

90:                                               ; preds = %31
  call void @llvm.lifetime.end.p0(i64 4, ptr %9) #19
  call void @llvm.lifetime.end.p0(i64 4, ptr %8) #19
  call void @llvm.lifetime.end.p0(i64 4, ptr %7) #19
  ret void
}