; Function Attrs: mustprogress nofree norecurse nosync nounwind memory(readwrite, inaccessiblemem: none) uwtable
define void @_Z19gmx_ana_index_mergeP15gmx_ana_index_tS0_S0_(ptr noundef captures(none) initializes((0, 4)) %0, ptr noundef readonly captures(none) %1, ptr noundef readonly captures(none) %2) local_unnamed_addr #20 {
  %4 = load i32, ptr %1, align 8, !tbaa !73
  %5 = load i32, ptr %2, align 8, !tbaa !73
  %6 = add nsw i32 %5, %4
  store i32 %6, ptr %0, align 8, !tbaa !73
  %7 = icmp sgt i32 %6, 0
  br i1 %7, label %.lr.ph, label %._crit_edge

.lr.ph:                                           ; preds = %3
  %8 = add nsw i32 %5, -1
  %9 = add nsw i32 %4, -1
  %10 = getelementptr inbounds nuw i8, ptr %1, i64 8
  %11 = getelementptr inbounds nuw i8, ptr %2, i64 8
  %12 = getelementptr inbounds nuw i8, ptr %0, i64 8
  %13 = zext nneg i32 %6 to i64
  %14 = load ptr, ptr %12, align 8, !tbaa !108
  br label %15

15:                                               ; preds = %.lr.ph, %35
  %indvars.iv = phi i64 [ %13, %.lr.ph ], [ %indvars.iv.next, %35 ]
  %.02126 = phi i32 [ %8, %.lr.ph ], [ %.1, %35 ]
  %.02225 = phi i32 [ %9, %.lr.ph ], [ %.123, %35 ]
  %indvars.iv.next = add nsw i64 %indvars.iv, -1
  %16 = icmp slt i32 %.02225, 0
  br i1 %16, label %._crit_edge32, label %17

._crit_edge32:                                    ; preds = %15
  %.pre33 = load ptr, ptr %11, align 8, !tbaa !108
  br label %28

17:                                               ; preds = %15
  %18 = icmp sgt i32 %.02126, -1
  %.pre = load ptr, ptr %10, align 8, !tbaa !108
  %19 = zext nneg i32 %.02225 to i64
  %20 = getelementptr inbounds nuw i32, ptr %.pre, i64 %19
  %21 = load i32, ptr %20, align 4, !tbaa !36
  br i1 %18, label %22, label %._crit_edge29

22:                                               ; preds = %17
  %23 = load ptr, ptr %11, align 8, !tbaa !108
  %24 = zext nneg i32 %.02126 to i64
  %25 = getelementptr inbounds nuw i32, ptr %23, i64 %24
  %26 = load i32, ptr %25, align 4, !tbaa !36
  %27 = icmp slt i32 %21, %26
  br i1 %27, label %28, label %._crit_edge29

28:                                               ; preds = %._crit_edge32, %22
  %29 = phi ptr [ %.pre33, %._crit_edge32 ], [ %23, %22 ]
  %30 = add nsw i32 %.02126, -1
  %31 = sext i32 %.02126 to i64
  %32 = getelementptr inbounds i32, ptr %29, i64 %31
  %33 = load i32, ptr %32, align 4, !tbaa !36
  br label %35

._crit_edge29:                                    ; preds = %17, %22
  %34 = add nsw i32 %.02225, -1
  br label %35

35:                                               ; preds = %28, %._crit_edge29
  %.sink = phi i32 [ %33, %28 ], [ %21, %._crit_edge29 ]
  %.123 = phi i32 [ %.02225, %28 ], [ %34, %._crit_edge29 ]
  %.1 = phi i32 [ %30, %28 ], [ %.02126, %._crit_edge29 ]
  %36 = getelementptr inbounds nuw i32, ptr %14, i64 %indvars.iv.next
  store i32 %.sink, ptr %36, align 4, !tbaa !36
  %37 = icmp samesign ugt i64 %indvars.iv, 1
  br i1 %37, label %15, label %._crit_edge, !llvm.loop !141

._crit_edge:                                      ; preds = %35, %3
  ret void
}